target datalayout = "e-m:e-p270:32:32-p271:32:32-p272:64:64-i64:64-i128:128-f80:128-n8:16:32:64-S128"
target triple = "x86_64-unknown-linux-gnu"

%"class.std::__cxx11::basic_string" = type { %"struct.std::__cxx11::basic_string<char>::_Alloc_hider", i64, %union.anon }
%"struct.std::__cxx11::basic_string<char>::_Alloc_hider" = type { ptr }
%union.anon = type { i64, [8 x i8] }
%"struct.glTF::Object" = type { ptr, %"class.std::__cxx11::basic_string", %"class.std::__cxx11::basic_string" }
%"struct.std::_Vector_base.73" = type { %"struct.std::_Vector_base<glTF::Mesh *, std::allocator<glTF::Mesh *>>::_Vector_impl" }
%"struct.std::_Vector_base<glTF::Mesh *, std::allocator<glTF::Mesh *>>::_Vector_impl" = type { %"struct.std::_Vector_base<glTF::Mesh *, std::allocator<glTF::Mesh *>>::_Vector_impl_data" }
%"struct.std::_Vector_base<glTF::Mesh *, std::allocator<glTF::Mesh *>>::_Vector_impl_data" = type { ptr, ptr, ptr }
%"struct.std::_Vector_base.79" = type { %"struct.std::_Vector_base<glTF::Node *, std::allocator<glTF::Node *>>::_Vector_impl" }
%"struct.std::_Vector_base<glTF::Node *, std::allocator<glTF::Node *>>::_Vector_impl" = type { %"struct.std::_Vector_base<glTF::Node *, std::allocator<glTF::Node *>>::_Vector_impl_data" }
%"struct.std::_Vector_base<glTF::Node *, std::allocator<glTF::Node *>>::_Vector_impl_data" = type { ptr, ptr, ptr }
%"class.glTFCommon::Ref.147" = type <{ ptr, i32, [4 x i8] }>
%"class.glTFCommon::Ref.159" = type <{ ptr, i32, [4 x i8] }>
%"struct.glTF::Node" = type { %"struct.glTF::Object", %"class.std::vector.127", %"class.std::vector.132", %"struct.glTFCommon::Nullable", %"struct.glTFCommon::Nullable.137", %"struct.glTFCommon::Nullable.139", %"struct.glTFCommon::Nullable.137", %"class.glTFCommon::Ref.141", %"class.glTFCommon::Ref.143", %"class.std::vector.127", %"class.glTFCommon::Ref.145", %"class.std::__cxx11::basic_string", %"class.glTFCommon::Ref.147" }
%"class.std::vector.132" = type { %"struct.std::_Vector_base.133" }
%"struct.std::_Vector_base.133" = type { %"struct.std::_Vector_base<glTFCommon::Ref<glTF::Mesh>, std::allocator<glTFCommon::Ref<glTF::Mesh>>>::_Vector_impl" }
%"struct.std::_Vector_base<glTFCommon::Ref<glTF::Mesh>, std::allocator<glTFCommon::Ref<glTF::Mesh>>>::_Vector_impl" = type { %"struct.std::_Vector_base<glTFCommon::Ref<glTF::Mesh>, std::allocator<glTFCommon::Ref<glTF::Mesh>>>::_Vector_impl_data" }
%"struct.std::_Vector_base<glTFCommon::Ref<glTF::Mesh>, std::allocator<glTFCommon::Ref<glTF::Mesh>>>::_Vector_impl_data" = type { ptr, ptr, ptr }
%"struct.glTFCommon::Nullable" = type <{ [16 x float], i8, [3 x i8] }>
%"struct.glTFCommon::Nullable.139" = type <{ [4 x float], i8, [3 x i8] }>
%"struct.glTFCommon::Nullable.137" = type <{ [3 x float], i8, [3 x i8] }>
%"class.glTFCommon::Ref.141" = type <{ ptr, i32, [4 x i8] }>
%"class.glTFCommon::Ref.143" = type <{ ptr, i32, [4 x i8] }>
%"class.std::vector.127" = type { %"struct.std::_Vector_base.128" }
%"struct.std::_Vector_base.128" = type { %"struct.std::_Vector_base<glTFCommon::Ref<glTF::Node>, std::allocator<glTFCommon::Ref<glTF::Node>>>::_Vector_impl" }
%"struct.std::_Vector_base<glTFCommon::Ref<glTF::Node>, std::allocator<glTFCommon::Ref<glTF::Node>>>::_Vector_impl" = type { %"struct.std::_Vector_base<glTFCommon::Ref<glTF::Node>, std::allocator<glTFCommon::Ref<glTF::Node>>>::_Vector_impl_data" }
%"struct.std::_Vector_base<glTFCommon::Ref<glTF::Node>, std::allocator<glTFCommon::Ref<glTF::Node>>>::_Vector_impl_data" = type { ptr, ptr, ptr }
%"class.glTFCommon::Ref.145" = type <{ ptr, i32, [4 x i8] }>

; Function Attrs: mustprogress nounwind uwtable
define linkonce_odr hidden noundef nonnull align 8 dereferenceable(8) ptr @_ZNSt6vectorIPN4glTF4MeshESaIS2_EEixEm(ptr noundef nonnull align 8 dereferenceable(24) %this, i64 noundef %__n) #0 comdat align 2 {
entry:
  %this.addr = alloca ptr, align 8
  %__n.addr = alloca i64, align 8
  store ptr %this, ptr %this.addr, align 8
  store i64 %__n, ptr %__n.addr, align 8
  %this1 = load ptr, ptr %this.addr, align 8
  %_M_impl = getelementptr inbounds %"struct.std::_Vector_base.73", ptr %this1, i32 0, i32 0
  %_M_start = getelementptr inbounds %"struct.std::_Vector_base<glTF::Mesh *, std::allocator<glTF::Mesh *>>::_Vector_impl_data", ptr %_M_impl, i32 0, i32 0
  %0 = load ptr, ptr %_M_start, align 8
  %1 = load i64, ptr %__n.addr, align 8
  %add.ptr = getelementptr inbounds ptr, ptr %0, i64 %1
  ret ptr %add.ptr
}

; Function Attrs: mustprogress nounwind uwtable
define linkonce_odr hidden noundef nonnull align 8 dereferenceable(8) ptr @_ZNSt6vectorIPN4glTF4NodeESaIS2_EEixEm(ptr noundef nonnull align 8 dereferenceable(24) %this, i64 noundef %__n) #0 comdat align 2 {
entry:
  %this.addr = alloca ptr, align 8
  %__n.addr = alloca i64, align 8
  store ptr %this, ptr %this.addr, align 8
  store i64 %__n, ptr %__n.addr, align 8
  %this1 = load ptr, ptr %this.addr, align 8
  %_M_impl = getelementptr inbounds %"struct.std::_Vector_base.79", ptr %this1, i32 0, i32 0
  %_M_start = getelementptr inbounds %"struct.std::_Vector_base<glTF::Node *, std::allocator<glTF::Node *>>::_Vector_impl_data", ptr %_M_impl, i32 0, i32 0
  %0 = load ptr, ptr %_M_start, align 8
  %1 = load i64, ptr %__n.addr, align 8
  %add.ptr = getelementptr inbounds ptr, ptr %0, i64 %1
  ret ptr %add.ptr
}

; Function Attrs: mustprogress nounwind uwtable
define linkonce_odr hidden noundef nonnull align 8 dereferenceable(12) ptr @_ZNSt6vectorIN10glTFCommon3RefIN4glTF4NodeEEESaIS4_EEixEm(ptr noundef nonnull align 8 dereferenceable(24) %this, i64 noundef %__n) #0 comdat align 2 {
entry:
  %this.addr = alloca ptr, align 8
  %__n.addr = alloca i64, align 8
  store ptr %this, ptr %this.addr, align 8
  store i64 %__n, ptr %__n.addr, align 8
  %this1 = load ptr, ptr %this.addr, align 8
  %_M_impl = getelementptr inbounds %"struct.std::_Vector_base.128", ptr %this1, i32 0, i32 0
  %_M_start = getelementptr inbounds %"struct.std::_Vector_base<glTFCommon::Ref<glTF::Node>, std::allocator<glTFCommon::Ref<glTF::Node>>>::_Vector_impl_data", ptr %_M_impl, i32 0, i32 0
  %0 = load ptr, ptr %_M_start, align 8
  %1 = load i64, ptr %__n.addr, align 8
  %add.ptr = getelementptr inbounds %"class.glTFCommon::Ref.147", ptr %0, i64 %1
  ret ptr %add.ptr
}

; Function Attrs: mustprogress nounwind uwtable
define linkonce_odr hidden noundef i64 @_ZNKSt6vectorIN10glTFCommon3RefIN4glTF4NodeEEESaIS4_EE4sizeEv(ptr noundef nonnull align 8 dereferenceable(24) %this) #0 comdat align 2 {
entry:
  %this.addr = alloca ptr, align 8
  store ptr %this, ptr %this.addr, align 8
  %this1 = load ptr, ptr %this.addr, align 8
  %_M_impl = getelementptr inbounds %"struct.std::_Vector_base.128", ptr %this1, i32 0, i32 0
  %_M_finish = getelementptr inbounds %"struct.std::_Vector_base<glTFCommon::Ref<glTF::Node>, std::allocator<glTFCommon::Ref<glTF::Node>>>::_Vector_impl_data", ptr %_M_impl, i32 0, i32 1
  %0 = load ptr, ptr %_M_finish, align 8
  %_M_impl2 = getelementptr inbounds %"struct.std::_Vector_base.128", ptr %this1, i32 0, i32 0
  %_M_start = getelementptr inbounds %"struct.std::_Vector_base<glTFCommon::Ref<glTF::Node>, std::allocator<glTFCommon::Ref<glTF::Node>>>::_Vector_impl_data", ptr %_M_impl2, i32 0, i32 0
  %1 = load ptr, ptr %_M_start, align 8
  %sub.ptr.lhs.cast = ptrtoint ptr %0 to i64
  %sub.ptr.rhs.cast = ptrtoint ptr %1 to i64
  %sub.ptr.sub = sub i64 %sub.ptr.lhs.cast, %sub.ptr.rhs.cast
  %sub.ptr.div = sdiv exact i64 %sub.ptr.sub, 16
  ret i64 %sub.ptr.div
}

; Function Attrs: mustprogress nounwind uwtable
define linkonce_odr hidden noundef ptr @_ZN10glTFCommon3RefIN4glTF4MeshEEptEv(ptr noundef nonnull align 8 dereferenceable(12) %this) #0 comdat align 2 {
entry:
  %this.addr = alloca ptr, align 8
  store ptr %this, ptr %this.addr, align 8
  %this1 = load ptr, ptr %this.addr, align 8
  %vector = getelementptr inbounds %"class.glTFCommon::Ref.159", ptr %this1, i32 0, i32 0
  %0 = load ptr, ptr %vector, align 8
  %index = getelementptr inbounds %"class.glTFCommon::Ref.159", ptr %this1, i32 0, i32 1
  %1 = load i32, ptr %index, align 8
  %conv = zext i32 %1 to i64
  %call = call noundef nonnull align 8 dereferenceable(8) ptr @_ZNSt6vectorIPN4glTF4MeshESaIS2_EEixEm(ptr noundef nonnull align 8 dereferenceable(24) %0, i64 noundef %conv) #16
  %2 = load ptr, ptr %call, align 8
  ret ptr %2
}

; Function Attrs: mustprogress nounwind uwtable
define linkonce_odr hidden noundef nonnull align 8 dereferenceable(12) ptr @_ZNSt6vectorIN10glTFCommon3RefIN4glTF4MeshEEESaIS4_EEixEm(ptr noundef nonnull align 8 dereferenceable(24) %this, i64 noundef %__n) #0 comdat align 2 {
entry:
  %this.addr = alloca ptr, align 8
  %__n.addr = alloca i64, align 8
  store ptr %this, ptr %this.addr, align 8
  store i64 %__n, ptr %__n.addr, align 8
  %this1 = load ptr, ptr %this.addr, align 8
  %_M_impl = getelementptr inbounds %"struct.std::_Vector_base.133", ptr %this1, i32 0, i32 0
  %_M_start = getelementptr inbounds %"struct.std::_Vector_base<glTFCommon::Ref<glTF::Mesh>, std::allocator<glTFCommon::Ref<glTF::Mesh>>>::_Vector_impl_data", ptr %_M_impl, i32 0, i32 0
  %0 = load ptr, ptr %_M_start, align 8
  %1 = load i64, ptr %__n.addr, align 8
  %add.ptr = getelementptr inbounds %"class.glTFCommon::Ref.159", ptr %0, i64 %1
  ret ptr %add.ptr
}

; Function Attrs: mustprogress nounwind uwtable
define linkonce_odr hidden noundef i64 @_ZNKSt6vectorIN10glTFCommon3RefIN4glTF4MeshEEESaIS4_EE4sizeEv(ptr noundef nonnull align 8 dereferenceable(24) %this) #0 comdat align 2 {
entry:
  %this.addr = alloca ptr, align 8
  store ptr %this, ptr %this.addr, align 8
  %this1 = load ptr, ptr %this.addr, align 8
  %_M_impl = getelementptr inbounds %"struct.std::_Vector_base.133", ptr %this1, i32 0, i32 0
  %_M_finish = getelementptr inbounds %"struct.std::_Vector_base<glTFCommon::Ref<glTF::Mesh>, std::allocator<glTFCommon::Ref<glTF::Mesh>>>::_Vector_impl_data", ptr %_M_impl, i32 0, i32 1
  %0 = load ptr, ptr %_M_finish, align 8
  %_M_impl2 = getelementptr inbounds %"struct.std::_Vector_base.133", ptr %this1, i32 0, i32 0
  %_M_start = getelementptr inbounds %"struct.std::_Vector_base<glTFCommon::Ref<glTF::Mesh>, std::allocator<glTFCommon::Ref<glTF::Mesh>>>::_Vector_impl_data", ptr %_M_impl2, i32 0, i32 0
  %1 = load ptr, ptr %_M_start, align 8
  %sub.ptr.lhs.cast = ptrtoint ptr %0 to i64
  %sub.ptr.rhs.cast = ptrtoint ptr %1 to i64
  %sub.ptr.sub = sub i64 %sub.ptr.lhs.cast, %sub.ptr.rhs.cast
  %sub.ptr.div = sdiv exact i64 %sub.ptr.sub, 16
  ret i64 %sub.ptr.div
}

; Function Attrs: mustprogress nounwind uwtable
define linkonce_odr hidden noundef ptr @_ZN10glTFCommon3RefIN4glTF4NodeEEptEv(ptr noundef nonnull align 8 dereferenceable(12) %this) #0 comdat align 2 {
entry:
  %this.addr = alloca ptr, align 8
  store ptr %this, ptr %this.addr, align 8
  %this1 = load ptr, ptr %this.addr, align 8
  %vector = getelementptr inbounds %"class.glTFCommon::Ref.147", ptr %this1, i32 0, i32 0
  %0 = load ptr, ptr %vector, align 8
  %index = getelementptr inbounds %"class.glTFCommon::Ref.147", ptr %this1, i32 0, i32 1
  %1 = load i32, ptr %index, align 8
  %conv = zext i32 %1 to i64
  %call = call noundef nonnull align 8 dereferenceable(8) ptr @_ZNSt6vectorIPN4glTF4NodeESaIS2_EEixEm(ptr noundef nonnull align 8 dereferenceable(24) %0, i64 noundef %conv) #16
  %2 = load ptr, ptr %call, align 8
  ret ptr %2
}

; Function Attrs: mustprogress uwtable
define hidden noundef zeroext i1 @_Z12FindMeshNodeRN10glTFCommon3RefIN4glTF4NodeEEES4_RKNSt7__cxx1112basic_stringIcSt11char_traitsIcESaIcEEE(ptr noundef nonnull align 8 dereferenceable(12) %nodeIn, ptr noundef nonnull align 8 dereferenceable(12) %meshNode, ptr noundef nonnull align 8 dereferenceable(32) %meshID) #3 {
entry:
  %retval = alloca i1, align 1
  %nodeIn.addr = alloca ptr, align 8
  %meshNode.addr = alloca ptr, align 8
  %meshID.addr = alloca ptr, align 8
  %i = alloca i32, align 4
  %i9 = alloca i32, align 4
  store ptr %nodeIn, ptr %nodeIn.addr, align 8
  store ptr %meshNode, ptr %meshNode.addr, align 8
  store ptr %meshID, ptr %meshID.addr, align 8
  store i32 0, ptr %i, align 4
  br label %for.cond

for.cond:                                         ; preds = %for.inc, %entry
  %0 = load i32, ptr %i, align 4
  %conv = zext i32 %0 to i64
  %1 = load ptr, ptr %nodeIn.addr, align 8
  %call = call noundef ptr @_ZN10glTFCommon3RefIN4glTF4NodeEEptEv(ptr noundef nonnull align 8 dereferenceable(12) %1)
  %meshes = getelementptr inbounds %"struct.glTF::Node", ptr %call, i32 0, i32 2
  %call1 = call noundef i64 @_ZNKSt6vectorIN10glTFCommon3RefIN4glTF4MeshEEESaIS4_EE4sizeEv(ptr noundef nonnull align 8 dereferenceable(24) %meshes) #16
  %cmp = icmp ult i64 %conv, %call1
  br i1 %cmp, label %for.body, label %for.end

for.body:                                         ; preds = %for.cond
  %2 = load ptr, ptr %meshID.addr, align 8
  %3 = load ptr, ptr %nodeIn.addr, align 8
  %call2 = call noundef ptr @_ZN10glTFCommon3RefIN4glTF4NodeEEptEv(ptr noundef nonnull align 8 dereferenceable(12) %3)
  %meshes3 = getelementptr inbounds %"struct.glTF::Node", ptr %call2, i32 0, i32 2
  %4 = load i32, ptr %i, align 4
  %conv4 = zext i32 %4 to i64
  %call5 = call noundef nonnull align 8 dereferenceable(12) ptr @_ZNSt6vectorIN10glTFCommon3RefIN4glTF4MeshEEESaIS4_EEixEm(ptr noundef nonnull align 8 dereferenceable(24) %meshes3, i64 noundef %conv4) #16
  %call6 = call noundef ptr @_ZN10glTFCommon3RefIN4glTF4MeshEEptEv(ptr noundef nonnull align 8 dereferenceable(12) %call5)
  %id = getelementptr inbounds %"struct.glTF::Object", ptr %call6, i32 0, i32 1
  %call7 = call noundef i32 @_ZNKSt7__cxx1112basic_stringIcSt11char_traitsIcESaIcEE7compareERKS4_(ptr noundef nonnull align 8 dereferenceable(32) %2, ptr noundef nonnull align 8 dereferenceable(32) %id)
  %cmp8 = icmp eq i32 %call7, 0
  br i1 %cmp8, label %if.then, label %if.end

if.then:                                          ; preds = %for.body
  %5 = load ptr, ptr %nodeIn.addr, align 8
  %6 = load ptr, ptr %meshNode.addr, align 8
  call void @llvm.memcpy.p0.p0.i64(ptr align 8 %6, ptr align 8 %5, i64 12, i1 false)
  store i1 true, ptr %retval, align 1
  br label %return

if.end:                                           ; preds = %for.body
  br label %for.inc

for.inc:                                          ; preds = %if.end
  %7 = load i32, ptr %i, align 4
  %inc = add i32 %7, 1
  store i32 %inc, ptr %i, align 4
  br label %for.cond, !llvm.loop !22

for.end:                                          ; preds = %for.cond
  store i32 0, ptr %i9, align 4
  br label %for.cond10

for.cond10:                                       ; preds = %for.inc23, %for.end
  %8 = load i32, ptr %i9, align 4
  %conv11 = zext i32 %8 to i64
  %9 = load ptr, ptr %nodeIn.addr, align 8
  %call12 = call noundef ptr @_ZN10glTFCommon3RefIN4glTF4NodeEEptEv(ptr noundef nonnull align 8 dereferenceable(12) %9)
  %children = getelementptr inbounds %"struct.glTF::Node", ptr %call12, i32 0, i32 1
  %call13 = call noundef i64 @_ZNKSt6vectorIN10glTFCommon3RefIN4glTF4NodeEEESaIS4_EE4sizeEv(ptr noundef nonnull align 8 dereferenceable(24) %children) #16
  %cmp14 = icmp ult i64 %conv11, %call13
  br i1 %cmp14, label %for.body15, label %for.end25

for.body15:                                       ; preds = %for.cond10
  %10 = load ptr, ptr %nodeIn.addr, align 8
  %call16 = call noundef ptr @_ZN10glTFCommon3RefIN4glTF4NodeEEptEv(ptr noundef nonnull align 8 dereferenceable(12) %10)
  %children17 = getelementptr inbounds %"struct.glTF::Node", ptr %call16, i32 0, i32 1
  %11 = load i32, ptr %i9, align 4
  %conv18 = zext i32 %11 to i64
  %call19 = call noundef nonnull align 8 dereferenceable(12) ptr @_ZNSt6vectorIN10glTFCommon3RefIN4glTF4NodeEEESaIS4_EEixEm(ptr noundef nonnull align 8 dereferenceable(24) %children17, i64 noundef %conv18) #16
  %12 = load ptr, ptr %meshNode.addr, align 8
  %13 = load ptr, ptr %meshID.addr, align 8
  %call20 = call noundef zeroext i1 @_Z12FindMeshNodeRN10glTFCommon3RefIN4glTF4NodeEEES4_RKNSt7__cxx1112basic_stringIcSt11char_traitsIcESaIcEEE(ptr noundef nonnull align 8 dereferenceable(12) %call19, ptr noundef nonnull align 8 dereferenceable(12) %12, ptr noundef nonnull align 8 dereferenceable(32) %13)
  br i1 %call20, label %if.then21, label %if.end22

if.then21:                                        ; preds = %for.body15
  store i1 true, ptr %retval, align 1
  br label %return

if.end22:                                         ; preds = %for.body15
  br label %for.inc23

for.inc23:                                        ; preds = %if.end22
  %14 = load i32, ptr %i9, align 4
  %inc24 = add i32 %14, 1
  store i32 %inc24, ptr %i9, align 4
  br label %for.cond10, !llvm.loop !23

for.end25:                                        ; preds = %for.cond10
  store i1 false, ptr %retval, align 1
  br label %return

return:                                           ; preds = %for.end25, %if.then21, %if.then
  %15 = load i1, ptr %retval, align 1
  ret i1 %15
}