; Function Attrs: mustprogress uwtable
define hidden noundef zeroext i1 @_Z12FindMeshNodeRN10glTFCommon3RefIN4glTF4NodeEEES4_RKNSt7__cxx1112basic_stringIcSt11char_traitsIcESaIcEEE(ptr nocapture noundef nonnull readonly align 8 dereferenceable(12) %nodeIn, ptr nocapture noundef nonnull writeonly align 8 dereferenceable(12) %meshNode, ptr noundef nonnull align 8 dereferenceable(32) %meshID) local_unnamed_addr #2 {
entry:
  %index.i = getelementptr inbounds i8, ptr %nodeIn, i64 8
  %0 = load ptr, ptr %nodeIn, align 8
  %1 = load i32, ptr %index.i, align 8
  %conv.i30 = zext i32 %1 to i64
  %2 = load ptr, ptr %0, align 8
  %add.ptr.i.i31 = getelementptr inbounds ptr, ptr %2, i64 %conv.i30
  %3 = load ptr, ptr %add.ptr.i.i31, align 8
  %meshes32 = getelementptr inbounds i8, ptr %3, i64 96
  %_M_finish.i33 = getelementptr inbounds i8, ptr %3, i64 104
  %4 = load ptr, ptr %_M_finish.i33, align 8
  %5 = load ptr, ptr %meshes32, align 8
  %cmp38.not = icmp eq ptr %4, %5
  br i1 %cmp38.not, label %for.cond10.preheader, label %for.body

for.cond:                                         ; preds = %for.body
  %inc = add i32 %i.039, 1
  %conv = zext i32 %inc to i64
  %6 = load ptr, ptr %nodeIn, align 8
  %7 = load i32, ptr %index.i, align 8
  %conv.i = zext i32 %7 to i64
  %8 = load ptr, ptr %6, align 8
  %add.ptr.i.i = getelementptr inbounds ptr, ptr %8, i64 %conv.i
  %9 = load ptr, ptr %add.ptr.i.i, align 8
  %meshes = getelementptr inbounds i8, ptr %9, i64 96
  %_M_finish.i = getelementptr inbounds i8, ptr %9, i64 104
  %10 = load ptr, ptr %_M_finish.i, align 8
  %11 = load ptr, ptr %meshes, align 8
  %sub.ptr.lhs.cast.i = ptrtoint ptr %10 to i64
  %sub.ptr.rhs.cast.i = ptrtoint ptr %11 to i64
  %sub.ptr.sub.i = sub i64 %sub.ptr.lhs.cast.i, %sub.ptr.rhs.cast.i
  %sub.ptr.div.i = ashr exact i64 %sub.ptr.sub.i, 4
  %cmp = icmp ugt i64 %sub.ptr.div.i, %conv
  br i1 %cmp, label %for.body, label %for.cond10.preheader, !llvm.loop !82

for.cond10.preheader:                             ; preds = %for.cond, %entry
  %12 = phi ptr [ %3, %entry ], [ %9, %for.cond ]
  %children43 = getelementptr inbounds i8, ptr %12, i64 72
  %_M_finish.i2044 = getelementptr inbounds i8, ptr %12, i64 80
  %13 = load ptr, ptr %_M_finish.i2044, align 8
  %14 = load ptr, ptr %children43, align 8
  %cmp1449.not = icmp eq ptr %13, %14
  br i1 %cmp1449.not, label %return, label %for.body15

for.body:                                         ; preds = %entry, %for.cond
  %15 = phi ptr [ %11, %for.cond ], [ %5, %entry ]
  %conv40 = phi i64 [ %conv, %for.cond ], [ 0, %entry ]
  %i.039 = phi i32 [ %inc, %for.cond ], [ 0, %entry ]
  %add.ptr.i = getelementptr inbounds %"class.glTFCommon::Ref.159", ptr %15, i64 %conv40
  %16 = load ptr, ptr %add.ptr.i, align 8
  %index.i14 = getelementptr inbounds i8, ptr %add.ptr.i, i64 8
  %17 = load i32, ptr %index.i14, align 8
  %conv.i15 = zext i32 %17 to i64
  %18 = load ptr, ptr %16, align 8
  %add.ptr.i.i16 = getelementptr inbounds ptr, ptr %18, i64 %conv.i15
  %19 = load ptr, ptr %add.ptr.i.i16, align 8
  %id = getelementptr inbounds i8, ptr %19, i64 8
  %call7 = tail call noundef i32 @_ZNKSt7__cxx1112basic_stringIcSt11char_traitsIcESaIcEE7compareERKS4_(ptr noundef nonnull align 8 dereferenceable(32) %meshID, ptr noundef nonnull align 8 dereferenceable(32) %id)
  %cmp8 = icmp eq i32 %call7, 0
  br i1 %cmp8, label %if.then, label %for.cond

if.then:                                          ; preds = %for.body
  tail call void @llvm.memcpy.p0.p0.i64(ptr noundef nonnull align 8 dereferenceable(12) %meshNode, ptr noundef nonnull align 8 dereferenceable(12) %nodeIn, i64 12, i1 false)
  br label %return

for.cond10:                                       ; preds = %for.body15
  %inc24 = add i32 %i9.050, 1
  %conv11 = zext i32 %inc24 to i64
  %20 = load ptr, ptr %nodeIn, align 8
  %21 = load i32, ptr %index.i, align 8
  %conv.i18 = zext i32 %21 to i64
  %22 = load ptr, ptr %20, align 8
  %add.ptr.i.i19 = getelementptr inbounds ptr, ptr %22, i64 %conv.i18
  %23 = load ptr, ptr %add.ptr.i.i19, align 8
  %children = getelementptr inbounds i8, ptr %23, i64 72
  %_M_finish.i20 = getelementptr inbounds i8, ptr %23, i64 80
  %24 = load ptr, ptr %_M_finish.i20, align 8
  %25 = load ptr, ptr %children, align 8
  %sub.ptr.lhs.cast.i21 = ptrtoint ptr %24 to i64
  %sub.ptr.rhs.cast.i22 = ptrtoint ptr %25 to i64
  %sub.ptr.sub.i23 = sub i64 %sub.ptr.lhs.cast.i21, %sub.ptr.rhs.cast.i22
  %sub.ptr.div.i24 = ashr exact i64 %sub.ptr.sub.i23, 4
  %cmp14 = icmp ugt i64 %sub.ptr.div.i24, %conv11
  br i1 %cmp14, label %for.body15, label %return, !llvm.loop !83

for.body15:                                       ; preds = %for.cond10.preheader, %for.cond10
  %26 = phi ptr [ %25, %for.cond10 ], [ %14, %for.cond10.preheader ]
  %conv1151 = phi i64 [ %conv11, %for.cond10 ], [ 0, %for.cond10.preheader ]
  %i9.050 = phi i32 [ %inc24, %for.cond10 ], [ 0, %for.cond10.preheader ]
  %add.ptr.i28 = getelementptr inbounds %"class.glTFCommon::Ref.147", ptr %26, i64 %conv1151
  %call20 = tail call noundef zeroext i1 @_Z12FindMeshNodeRN10glTFCommon3RefIN4glTF4NodeEEES4_RKNSt7__cxx1112basic_stringIcSt11char_traitsIcESaIcEEE(ptr noundef nonnull align 8 dereferenceable(12) %add.ptr.i28, ptr noundef nonnull align 8 dereferenceable(12) %meshNode, ptr noundef nonnull align 8 dereferenceable(32) %meshID)
  br i1 %call20, label %return, label %for.cond10

return:                                           ; preds = %for.body15, %for.cond10, %for.cond10.preheader, %if.then
  %retval.0 = phi i1 [ true, %if.then ], [ false, %for.cond10.preheader ], [ %call20, %for.cond10 ], [ %call20, %for.body15 ]
  ret i1 %retval.0
}